Certificate Request:
    Data:
        Version: 0 (0x0)
        Subject: C=FR, O=NodeOPCUA, CN=NodeOPCUA
        Subject Public Key Info:
            Public Key Algorithm: rsaEncryption
            RSA Public Key: (1024 bit)
                Modulus (1024 bit):
                    00:ce:0d:4e:fe:01:cd:aa:80:0b:2e:b6:1e:d2:88:
                    4f:82:67:03:e3:37:e4:e8:7c:8c:87:b4:f5:55:cc:
                    38:a2:5b:4f:92:10:49:e7:58:1d:9f:99:d2:29:31:
                    cf:5d:55:1b:c0:c1:ab:93:c4:03:85:6d:0e:b8:71:
                    33:e8:9a:7d:50:3c:b0:59:85:9b:7c:b1:a0:71:b6:
                    d9:cc:25:77:0a:68:57:79:9c:89:fb:40:e5:28:92:
                    66:0a:34:7c:a2:b9:d9:a2:1c:c2:6c:bb:d6:f0:c6:
                    d4:7d:c6:06:8b:55:11:51:88:51:3e:a2:49:f4:f8:
                    4a:aa:68:c3:5e:92:97:f5:a7
                Exponent: 65537 (0x10001)
        Attributes:
        Requested Extensions:
            X509v3 Basic Constraints: 
                CA:FALSE
            X509v3 Key Usage: critical
                Certificate Sign, CRL Sign
            X509v3 Subject Alternative Name: 
                URI:undefined, DNS:, DNS:, DNS:, DNS:, DNS:
    Signature Algorithm: sha256WithRSAEncryption
        57:8c:e8:ac:8e:47:02:95:fe:3b:d1:15:8c:03:ec:24:c4:16:
        d4:a0:56:f9:d4:37:aa:7c:ea:e7:52:26:b4:c8:16:7c:fa:5b:
        33:56:39:c6:23:fd:1a:d2:94:d0:89:0a:57:3f:64:83:d7:7d:
        7d:7d:6e:02:c9:2b:38:20:3e:36:c3:fa:c5:e6:c2:1a:d9:e9:
        f1:cb:1a:93:e5:1a:14:1b:63:56:1b:ac:f7:ee:ae:c5:87:c9:
        64:1b:47:bd:e0:e4:67:0b:9e:a0:40:3e:55:01:ba:8d:db:ef:
        70:62:46:c6:59:db:a9:86:f1:94:f9:fb:12:95:ba:5e:0c:71:
        28:4b
-----BEGIN CERTIFICATE REQUEST-----
MIIBwTCCASoCAQAwNTELMAkGA1UEBhMCRlIxEjAQBgNVBAoMCU5vZGVPUENVQTES
MBAGA1UEAwwJTm9kZU9QQ1VBMIGfMA0GCSqGSIb3DQEBAQUAA4GNADCBiQKBgQDO
DU7+Ac2qgAsuth7SiE+CZwPjN+TofIyHtPVVzDiiW0+SEEnnWB2fmdIpMc9dVRvA
wauTxAOFbQ64cTPomn1QPLBZhZt8saBxttnMJXcKaFd5nIn7QOUokmYKNHyiudmi
HMJsu9bwxtR9xgaLVRFRiFE+okn0+EqqaMNekpf1pwIDAQABoEwwSgYJKoZIhvcN
AQkOMT0wOzAJBgNVHRMEAjAAMA4GA1UdDwEB/wQEAwIBBjAeBgNVHREEFzAVhgl1
bmRlZmluZWSCAIIAggCCAIIAMA0GCSqGSIb3DQEBCwUAA4GBAFeM6KyORwKV/jvR
FYwD7CTEFtSgVvnUN6p86udSJrTIFnz6WzNWOcYj/RrSlNCJClc/ZIPXfX19bgLJ
KzggPjbD+sXmwhrZ6fHLGpPlGhQbY1YbrPfursWHyWQbR73g5GcLnqBAPlUBuo3b
73BiRsZZ26mG8ZT5+xKVul4McShL
-----END CERTIFICATE REQUEST-----
