Certificate Request:
    Data:
        Version: 0 (0x0)
        Subject: C=FR, ST=IDF, L=Paris, O=Local NODE-OPCUA Certificate Authority, CN=NodeOPCUA
        Subject Public Key Info:
            Public Key Algorithm: rsaEncryption
            RSA Public Key: (2048 bit)
                Modulus (2048 bit):
                    00:b4:80:22:3f:45:e1:b7:80:32:d0:1c:81:3e:38:
                    e6:1c:44:4d:48:b7:fb:96:d6:65:62:9a:f2:40:f9:
                    6a:4e:91:50:92:1b:80:dd:50:e2:2a:9c:69:4d:32:
                    6b:d0:44:70:e9:08:21:01:56:78:a4:4f:4b:09:3f:
                    0b:63:3d:b6:0d:98:df:38:8f:30:cc:a3:39:71:23:
                    7b:c9:89:ed:b6:e6:47:7f:fc:fc:d9:ba:f5:a5:0f:
                    af:8c:32:1d:3d:a6:25:01:2c:77:3a:6b:0c:52:9c:
                    e9:9c:92:2e:47:41:5e:7c:43:d7:60:d1:6a:df:ba:
                    26:ba:96:86:ed:f5:16:56:de:9c:3c:f0:9d:34:56:
                    0e:15:d3:fe:30:14:5d:62:89:db:a2:3c:cb:c7:19:
                    92:e8:45:b0:61:12:11:25:f5:d4:31:9e:83:e1:85:
                    8d:10:7e:dc:3e:a3:42:4e:58:06:59:2c:7f:f3:0a:
                    c7:c4:af:04:3d:05:20:61:a1:26:54:31:e8:de:df:
                    7c:6c:02:f0:d6:7c:74:08:49:ce:0a:39:ea:e9:01:
                    01:3a:4c:6d:a8:12:e0:c1:ce:99:e3:87:22:e7:61:
                    55:8f:51:6b:57:1d:74:9e:74:55:87:af:16:72:07:
                    95:97:82:89:8e:cd:dd:0b:ac:aa:11:86:db:91:f3:
                    bd:79
                Exponent: 65537 (0x10001)
        Attributes:
        Requested Extensions:
            X509v3 Basic Constraints: critical
                CA:FALSE
            X509v3 Key Usage: 
                Digital Signature, Non Repudiation, Key Encipherment, Data Encipherment, Key Agreement
            X509v3 Subject Alternative Name: 
                URI:undefined, DNS:, DNS:
            Netscape Comment: 
                CA Generated by Node-OPCUA Certificate utility using openssl
    Signature Algorithm: sha256WithRSAEncryption
        6c:59:92:04:0f:12:54:5b:dd:6f:ae:47:f6:b6:44:0d:42:d6:
        cb:f0:86:94:da:79:42:d7:40:18:58:cc:20:8f:66:e7:23:62:
        82:76:6c:d8:80:91:0e:c1:e1:54:2a:46:fc:56:63:a6:cb:7a:
        11:17:e4:6d:07:75:32:64:ca:06:58:54:c1:7a:ad:21:8b:39:
        0a:11:ab:f0:2a:af:41:17:fc:e9:28:c0:63:bc:ae:3b:69:66:
        8b:a1:e6:61:c0:3a:11:58:e0:1c:f5:21:5c:bd:d1:cc:d4:6f:
        56:ff:47:5c:5a:e1:fc:23:01:d6:3e:02:3f:bc:6d:24:92:24:
        63:ac:b0:38:29:f6:0c:6e:fc:5f:c5:51:d1:4c:65:5f:6f:b7:
        14:8d:14:c9:ac:73:2a:9c:88:67:9f:36:7a:cf:61:b0:a6:34:
        c8:17:48:44:50:bc:ec:95:f2:3d:ff:2c:08:be:0b:02:68:85:
        4f:22:d5:92:ff:cb:2b:a5:ad:e2:90:4b:14:64:5c:6c:07:90:
        b0:a4:73:7e:36:65:9e:4a:e2:ea:6e:60:48:7d:53:31:56:24:
        3b:08:17:61:e1:45:97:85:4b:7d:c2:6e:b6:b6:26:fa:cd:44:
        ed:31:1c:92:88:04:3c:30:5e:d3:a3:0c:0e:c9:6b:d9:bc:ff:
        7f:f5:6c:ec
-----BEGIN CERTIFICATE REQUEST-----
MIIDTDCCAjQCAQAwcDELMAkGA1UEBhMCRlIxDDAKBgNVBAgTA0lERjEOMAwGA1UE
BxMFUGFyaXMxLzAtBgNVBAoTJkxvY2FsIE5PREUtT1BDVUEgQ2VydGlmaWNhdGUg
QXV0aG9yaXR5MRIwEAYDVQQDEwlOb2RlT1BDVUEwggEiMA0GCSqGSIb3DQEBAQUA
A4IBDwAwggEKAoIBAQC0gCI/ReG3gDLQHIE+OOYcRE1It/uW1mVimvJA+WpOkVCS
G4DdUOIqnGlNMmvQRHDpCCEBVnikT0sJPwtjPbYNmN84jzDMozlxI3vJie225kd/
/PzZuvWlD6+MMh09piUBLHc6awxSnOmcki5HQV58Q9dg0Wrfuia6lobt9RZW3pw8
8J00Vg4V0/4wFF1iiduiPMvHGZLoRbBhEhEl9dQxnoPhhY0Qftw+o0JOWAZZLH/z
CsfErwQ9BSBhoSZUMeje33xsAvDWfHQISc4KOerpAQE6TG2oEuDBzpnjhyLnYVWP
UWtXHXSedFWHrxZyB5WXgomOzd0LrKoRhtuR8715AgMBAAGggZYwgZMGCSqGSIb3
DQEJDjGBhTCBgjAMBgNVHRMBAf8EAjAAMAsGA1UdDwQEAwID+DAYBgNVHREEETAP
hgl1bmRlZmluZWSCAIIAMEsGCWCGSAGG+EIBDQQ+FjxDQSBHZW5lcmF0ZWQgYnkg
Tm9kZS1PUENVQSBDZXJ0aWZpY2F0ZSB1dGlsaXR5IHVzaW5nIG9wZW5zc2wwDQYJ
KoZIhvcNAQELBQADggEBAGxZkgQPElRb3W+uR/a2RA1C1svwhpTaeULXQBhYzCCP
ZucjYoJ2bNiAkQ7B4VQqRvxWY6bLehEX5G0HdTJkygZYVMF6rSGLOQoRq/Aqr0EX
/OkowGO8rjtpZouh5mHAOhFY4Bz1IVy90czUb1b/R1xa4fwjAdY+Aj+8bSSSJGOs
sDgp9gxu/F/FUdFMZV9vtxSNFMmscyqciGefNnrPYbCmNMgXSERQvOyV8j3/LAi+
CwJohU8i1ZL/yyulreKQSxRkXGwHkLCkc342ZZ5K4upuYEh9UzFWJDsIF2HhRZeF
S33Cbra2JvrNRO0xHJKIBDwwXtOjDA7Ja9m8/3/1bOw=
-----END CERTIFICATE REQUEST-----
