Certificate:
    Data:
        Version: 1 (0x0)
        Serial Number:
            c3:f0:fb:d1:18:5e:90:d9
        Signature Algorithm: itu-t
        Issuer: C=FR, ST=IDF, L=Paris, O=Local NODE-OPCUA Certificate Authority, CN=NodeOPCUA
        Validity
            Not Before: Oct 20 16:36:08 2016 GMT
            Not After : Oct 18 16:36:08 2026 GMT
        Subject: C=FR, ST=IDF, L=Paris, O=Local NODE-OPCUA Certificate Authority, CN=NodeOPCUA
        Subject Public Key Info:
            Public Key Algorithm: rsaEncryption
            RSA Public Key: (2048 bit)
                Modulus (2048 bit):
                    00:b4:80:22:3f:45:e1:b7:80:32:d0:1c:81:3e:38:
                    e6:1c:44:4d:48:b7:fb:96:d6:65:62:9a:f2:40:f9:
                    6a:4e:91:50:92:1b:80:dd:50:e2:2a:9c:69:4d:32:
                    6b:d0:44:70:e9:08:21:01:56:78:a4:4f:4b:09:3f:
                    0b:63:3d:b6:0d:98:df:38:8f:30:cc:a3:39:71:23:
                    7b:c9:89:ed:b6:e6:47:7f:fc:fc:d9:ba:f5:a5:0f:
                    af:8c:32:1d:3d:a6:25:01:2c:77:3a:6b:0c:52:9c:
                    e9:9c:92:2e:47:41:5e:7c:43:d7:60:d1:6a:df:ba:
                    26:ba:96:86:ed:f5:16:56:de:9c:3c:f0:9d:34:56:
                    0e:15:d3:fe:30:14:5d:62:89:db:a2:3c:cb:c7:19:
                    92:e8:45:b0:61:12:11:25:f5:d4:31:9e:83:e1:85:
                    8d:10:7e:dc:3e:a3:42:4e:58:06:59:2c:7f:f3:0a:
                    c7:c4:af:04:3d:05:20:61:a1:26:54:31:e8:de:df:
                    7c:6c:02:f0:d6:7c:74:08:49:ce:0a:39:ea:e9:01:
                    01:3a:4c:6d:a8:12:e0:c1:ce:99:e3:87:22:e7:61:
                    55:8f:51:6b:57:1d:74:9e:74:55:87:af:16:72:07:
                    95:97:82:89:8e:cd:dd:0b:ac:aa:11:86:db:91:f3:
                    bd:79
                Exponent: 65537 (0x10001)
    Signature Algorithm: itu-t
-----BEGIN CERTIFICATE-----
MIIE1DCCA7ygAwIBAgIJAMPw+9EYXpDZMA0GCSqGSIb3DQEBCwUAMHAxCzAJBgNV
BAYTAkZSMQwwCgYDVQQIEwNJREYxDjAMBgNVBAcTBVBhcmlzMS8wLQYDVQQKEyZM
b2NhbCBOT0RFLU9QQ1VBIENlcnRpZmljYXRlIEF1dGhvcml0eTESMBAGA1UEAxMJ
Tm9kZU9QQ1VBMB4XDTE2MTAyMDE2MzYwOFoXDTI2MTAxODE2MzYwOFowcDELMAkG
A1UEBhMCRlIxDDAKBgNVBAgTA0lERjEOMAwGA1UEBxMFUGFyaXMxLzAtBgNVBAoT
JkxvY2FsIE5PREUtT1BDVUEgQ2VydGlmaWNhdGUgQXV0aG9yaXR5MRIwEAYDVQQD
EwlOb2RlT1BDVUEwggEiMA0GCSqGSIb3DQEBAQUAA4IBDwAwggEKAoIBAQC0gCI/
ReG3gDLQHIE+OOYcRE1It/uW1mVimvJA+WpOkVCSG4DdUOIqnGlNMmvQRHDpCCEB
VnikT0sJPwtjPbYNmN84jzDMozlxI3vJie225kd//PzZuvWlD6+MMh09piUBLHc6
awxSnOmcki5HQV58Q9dg0Wrfuia6lobt9RZW3pw88J00Vg4V0/4wFF1iiduiPMvH
GZLoRbBhEhEl9dQxnoPhhY0Qftw+o0JOWAZZLH/zCsfErwQ9BSBhoSZUMeje33xs
AvDWfHQISc4KOerpAQE6TG2oEuDBzpnjhyLnYVWPUWtXHXSedFWHrxZyB5WXgomO
zd0LrKoRhtuR8715AgMBAAGjggFvMIIBazAdBgNVHQ4EFgQUpL3I21TLQumJckeS
l0CnMN0mib4wgaIGA1UdIwSBmjCBl4AUpL3I21TLQumJckeSl0CnMN0mib6hdKRy
MHAxCzAJBgNVBAYTAkZSMQwwCgYDVQQIEwNJREYxDjAMBgNVBAcTBVBhcmlzMS8w
LQYDVQQKEyZMb2NhbCBOT0RFLU9QQ1VBIENlcnRpZmljYXRlIEF1dGhvcml0eTES
MBAGA1UEAxMJTm9kZU9QQ1VBggkAw/D70RhekNkwDAYDVR0TBAUwAwEB/zAOBgNV
HQ8BAf8EBAMCAQYwVwYJYIZIAYb4QgENBEoWSENBIENlcnRpZmljYXRlIGdlbmVy
YXRlZCBieSBOb2RlLU9QQ1VBIENlcnRpZmljYXRlIHV0aWxpdHkgdXNpbmcgb3Bl
bnNzbDAuBgNVHR8EJzAlMCOgIaAfhh1odHRwOi8vbG9jYWxob3N0Ojg5MDAvY3Js
LnBlbTANBgkqhkiG9w0BAQsFAAOCAQEAXHO6z+ruunJbcy5DvCj0fNqQxxAsQlP1
hIQP9+ovuoaDHhEObKPowpzbByUiPi38AVIXB2upCpQjl25H9jz+8G4IM2TjFvwu
hfOxce5UOoa7luZvSIpMOkTVin/CRb1BEswPfzRc58kcZTHxgVTmDR4fHTA7aMMv
cr4fZqvtKptqHhCRAWFiKmtj6J1W3EFsD0M+mpYCRvsZ/7CIx/o1DFjpSDP68ZKq
TlhloX3R3t85rGC5O8IkaE4yAMiB+arcKDwEm0ABQqBnb1PXAej8nR5TRnGRFfIh
Um+dR3W9J6t1e+zMNrqaZqS5n9uUQPhN/1pvijQLMM43RTVBAEL7fw==
-----END CERTIFICATE-----
